target datalayout = "e-m:e-p270:32:32-p271:32:32-p272:64:64-i64:64-i128:128-f80:128-n8:16:32:64-S128"
target triple = "x86_64-pc-linux-gnu"

%struct.jzfile = type { ptr, i32, i64, ptr, i64, i64, i8, i8, %struct.cencache, i32, ptr, ptr, i32, ptr, ptr, i32, ptr, i32, ptr, ptr, ptr, i32, i32, i64, i64 }
%struct.cencache = type { ptr, i64 }
%struct.jzcell = type { i32, i32, i64 }
%struct.jzentry = type { ptr, i64, i64, i64, i32, ptr, ptr, i64, i32, i32 }

; Function Attrs: nounwind uwtable
define internal i32 @hash_append(i32 noundef %0, i8 noundef signext %1) #0 {
  %3 = alloca i32, align 4
  %4 = alloca i8, align 1
  store i32 %0, ptr %3, align 4
  store i8 %1, ptr %4, align 1
  %5 = load i32, ptr %3, align 4
  %6 = mul nsw i32 %5, 31
  %7 = load i8, ptr %4, align 1
  %8 = sext i8 %7 to i32
  %9 = add nsw i32 %6, %8
  ret i32 %9
}

; Function Attrs: nounwind uwtable
define hidden void @ZIP_FreeEntry(ptr noundef %0, ptr noundef %1) #0 {
  %3 = alloca ptr, align 8
  %4 = alloca ptr, align 8
  %5 = alloca ptr, align 8
  store ptr %0, ptr %3, align 8
  store ptr %1, ptr %4, align 8
  %6 = load ptr, ptr %3, align 8
  call void @ZIP_Lock(ptr noundef %6)
  %7 = load ptr, ptr %3, align 8
  %8 = getelementptr inbounds %struct.jzfile, ptr %7, i32 0, i32 19
  %9 = load ptr, ptr %8, align 8
  store ptr %9, ptr %5, align 8
  %10 = load ptr, ptr %4, align 8
  %11 = load ptr, ptr %3, align 8
  %12 = getelementptr inbounds %struct.jzfile, ptr %11, i32 0, i32 19
  store ptr %10, ptr %12, align 8
  %13 = load ptr, ptr %3, align 8
  call void @ZIP_Unlock(ptr noundef %13)
  %14 = load ptr, ptr %5, align 8
  %15 = icmp ne ptr %14, null
  br i1 %15, label %16, label %27

16:                                               ; preds = %2
  %17 = load ptr, ptr %5, align 8
  %18 = getelementptr inbounds %struct.jzentry, ptr %17, i32 0, i32 0
  %19 = load ptr, ptr %18, align 8
  call void @free(ptr noundef %19) #11
  %20 = load ptr, ptr %5, align 8
  %21 = getelementptr inbounds %struct.jzentry, ptr %20, i32 0, i32 6
  %22 = load ptr, ptr %21, align 8
  call void @free(ptr noundef %22) #11
  %23 = load ptr, ptr %5, align 8
  %24 = getelementptr inbounds %struct.jzentry, ptr %23, i32 0, i32 5
  %25 = load ptr, ptr %24, align 8
  call void @free(ptr noundef %25) #11
  %26 = load ptr, ptr %5, align 8
  call void @free(ptr noundef %26) #11
  br label %27

27:                                               ; preds = %16, %2
  ret void
}

; Function Attrs: nounwind uwtable
define hidden void @ZIP_Unlock(ptr noundef %0) #0 {
  %2 = alloca ptr, align 8
  store ptr %0, ptr %2, align 8
  %3 = load ptr, ptr %2, align 8
  %4 = getelementptr inbounds %struct.jzfile, ptr %3, i32 0, i32 10
  %5 = load ptr, ptr %4, align 8
  call void @JVM_RawMonitorExit(ptr noundef %5)
  ret void
}

; Function Attrs: nounwind uwtable
define hidden zeroext i8 @equals(ptr noundef %0, i32 noundef %1, ptr noundef %2, i32 noundef %3) #0 {
  %5 = alloca i8, align 1
  %6 = alloca ptr, align 8
  %7 = alloca i32, align 4
  %8 = alloca ptr, align 8
  %9 = alloca i32, align 4
  store ptr %0, ptr %6, align 8
  store i32 %1, ptr %7, align 4
  store ptr %2, ptr %8, align 8
  store i32 %3, ptr %9, align 4
  %10 = load i32, ptr %7, align 4
  %11 = load i32, ptr %9, align 4
  %12 = icmp ne i32 %10, %11
  br i1 %12, label %13, label %14

13:                                               ; preds = %4
  store i8 0, ptr %5, align 1
  br label %32

14:                                               ; preds = %4
  br label %15

15:                                               ; preds = %30, %14
  %16 = load i32, ptr %7, align 4
  %17 = add nsw i32 %16, -1
  store i32 %17, ptr %7, align 4
  %18 = icmp sgt i32 %16, 0
  br i1 %18, label %19, label %31

19:                                               ; preds = %15
  %20 = load ptr, ptr %6, align 8
  %21 = getelementptr inbounds i8, ptr %20, i32 1
  store ptr %21, ptr %6, align 8
  %22 = load i8, ptr %20, align 1
  %23 = sext i8 %22 to i32
  %24 = load ptr, ptr %8, align 8
  %25 = getelementptr inbounds i8, ptr %24, i32 1
  store ptr %25, ptr %8, align 8
  %26 = load i8, ptr %24, align 1
  %27 = sext i8 %26 to i32
  %28 = icmp ne i32 %23, %27
  br i1 %28, label %29, label %30

29:                                               ; preds = %19
  store i8 0, ptr %5, align 1
  br label %32

30:                                               ; preds = %19
  br label %15, !llvm.loop !13

31:                                               ; preds = %15
  store i8 1, ptr %5, align 1
  br label %32

32:                                               ; preds = %31, %29, %13
  %33 = load i8, ptr %5, align 1
  ret i8 %33
}

; Function Attrs: nounwind uwtable
define hidden void @ZIP_Lock(ptr noundef %0) #0 {
  %2 = alloca ptr, align 8
  store ptr %0, ptr %2, align 8
  %3 = load ptr, ptr %2, align 8
  %4 = getelementptr inbounds %struct.jzfile, ptr %3, i32 0, i32 10
  %5 = load ptr, ptr %4, align 8
  %6 = call i32 @JVM_RawMonitorEnter(ptr noundef %5)
  ret void
}

; Function Attrs: nounwind uwtable
define internal i32 @hashN(ptr noundef %0, i32 noundef %1) #0 {
  %3 = alloca ptr, align 8
  %4 = alloca i32, align 4
  %5 = alloca i32, align 4
  store ptr %0, ptr %3, align 8
  store i32 %1, ptr %4, align 4
  store i32 0, ptr %5, align 4
  br label %6

6:                                                ; preds = %10, %2
  %7 = load i32, ptr %4, align 4
  %8 = add nsw i32 %7, -1
  store i32 %8, ptr %4, align 4
  %9 = icmp sgt i32 %7, 0
  br i1 %9, label %10, label %18

10:                                               ; preds = %6
  %11 = load i32, ptr %5, align 4
  %12 = mul i32 31, %11
  %13 = load ptr, ptr %3, align 8
  %14 = getelementptr inbounds i8, ptr %13, i32 1
  store ptr %14, ptr %3, align 8
  %15 = load i8, ptr %13, align 1
  %16 = sext i8 %15 to i32
  %17 = add i32 %12, %16
  store i32 %17, ptr %5, align 4
  br label %6, !llvm.loop !14

18:                                               ; preds = %6
  %19 = load i32, ptr %5, align 4
  ret i32 %19
}

; Function Attrs: nounwind uwtable
define hidden ptr @ZIP_GetEntry2(ptr noundef %0, ptr noundef %1, i32 noundef %2, i8 noundef zeroext %3) #0 {
  %5 = alloca ptr, align 8
  %6 = alloca ptr, align 8
  %7 = alloca ptr, align 8
  %8 = alloca i32, align 4
  %9 = alloca i8, align 1
  %10 = alloca i32, align 4
  %11 = alloca i32, align 4
  %12 = alloca ptr, align 8
  %13 = alloca ptr, align 8
  store ptr %0, ptr %6, align 8
  store ptr %1, ptr %7, align 8
  store i32 %2, ptr %8, align 4
  store i8 %3, ptr %9, align 1
  %14 = load ptr, ptr %7, align 8
  %15 = load i32, ptr %8, align 4
  %16 = call i32 @hashN(ptr noundef %14, i32 noundef %15)
  store i32 %16, ptr %10, align 4
  store ptr null, ptr %12, align 8
  %17 = load ptr, ptr %6, align 8
  call void @ZIP_Lock(ptr noundef %17)
  %18 = load ptr, ptr %6, align 8
  %19 = getelementptr inbounds %struct.jzfile, ptr %18, i32 0, i32 15
  %20 = load i32, ptr %19, align 8
  %21 = icmp eq i32 %20, 0
  br i1 %21, label %22, label %23

22:                                               ; preds = %4
  br label %151

23:                                               ; preds = %4
  %24 = load ptr, ptr %6, align 8
  %25 = getelementptr inbounds %struct.jzfile, ptr %24, i32 0, i32 16
  %26 = load ptr, ptr %25, align 8
  %27 = load i32, ptr %10, align 4
  %28 = load ptr, ptr %6, align 8
  %29 = getelementptr inbounds %struct.jzfile, ptr %28, i32 0, i32 17
  %30 = load i32, ptr %29, align 8
  %31 = urem i32 %27, %30
  %32 = zext i32 %31 to i64
  %33 = getelementptr inbounds i32, ptr %26, i64 %32
  %34 = load i32, ptr %33, align 4
  store i32 %34, ptr %11, align 4
  br label %35

35:                                               ; preds = %127, %23
  %36 = load ptr, ptr %6, align 8
  %37 = getelementptr inbounds %struct.jzfile, ptr %36, i32 0, i32 19
  %38 = load ptr, ptr %37, align 8
  store ptr %38, ptr %12, align 8
  %39 = load ptr, ptr %12, align 8
  %40 = icmp ne ptr %39, null
  br i1 %40, label %41, label %58

41:                                               ; preds = %35
  %42 = load ptr, ptr %12, align 8
  %43 = getelementptr inbounds %struct.jzentry, ptr %42, i32 0, i32 0
  %44 = load ptr, ptr %43, align 8
  %45 = load ptr, ptr %12, align 8
  %46 = getelementptr inbounds %struct.jzentry, ptr %45, i32 0, i32 9
  %47 = load i32, ptr %46, align 4
  %48 = load ptr, ptr %7, align 8
  %49 = load i32, ptr %8, align 4
  %50 = call zeroext i8 @equals(ptr noundef %44, i32 noundef %47, ptr noundef %48, i32 noundef %49)
  %51 = zext i8 %50 to i32
  %52 = icmp ne i32 %51, 0
  br i1 %52, label %53, label %58

53:                                               ; preds = %41
  %54 = load ptr, ptr %6, align 8
  %55 = getelementptr inbounds %struct.jzfile, ptr %54, i32 0, i32 19
  store ptr null, ptr %55, align 8
  %56 = load ptr, ptr %6, align 8
  call void @ZIP_Unlock(ptr noundef %56)
  %57 = load ptr, ptr %12, align 8
  store ptr %57, ptr %5, align 8
  br label %154

58:                                               ; preds = %41, %35
  store ptr null, ptr %12, align 8
  br label %59

59:                                               ; preds = %102, %58
  %60 = load i32, ptr %11, align 4
  %61 = icmp ne i32 %60, -1
  br i1 %61, label %62, label %106

62:                                               ; preds = %59
  %63 = load ptr, ptr %6, align 8
  %64 = getelementptr inbounds %struct.jzfile, ptr %63, i32 0, i32 14
  %65 = load ptr, ptr %64, align 8
  %66 = load i32, ptr %11, align 4
  %67 = sext i32 %66 to i64
  %68 = getelementptr inbounds %struct.jzcell, ptr %65, i64 %67
  store ptr %68, ptr %13, align 8
  %69 = load ptr, ptr %13, align 8
  %70 = getelementptr inbounds %struct.jzcell, ptr %69, i32 0, i32 0
  %71 = load i32, ptr %70, align 8
  %72 = load i32, ptr %10, align 4
  %73 = icmp eq i32 %71, %72
  br i1 %73, label %74, label %102

74:                                               ; preds = %62
  %75 = load ptr, ptr %6, align 8
  %76 = load ptr, ptr %13, align 8
  %77 = call ptr @newEntry(ptr noundef %75, ptr noundef %76, i32 noundef 0)
  store ptr %77, ptr %12, align 8
  %78 = load ptr, ptr %12, align 8
  %79 = icmp ne ptr %78, null
  br i1 %79, label %80, label %93

80:                                               ; preds = %74
  %81 = load ptr, ptr %12, align 8
  %82 = getelementptr inbounds %struct.jzentry, ptr %81, i32 0, i32 0
  %83 = load ptr, ptr %82, align 8
  %84 = load ptr, ptr %12, align 8
  %85 = getelementptr inbounds %struct.jzentry, ptr %84, i32 0, i32 9
  %86 = load i32, ptr %85, align 4
  %87 = load ptr, ptr %7, align 8
  %88 = load i32, ptr %8, align 4
  %89 = call zeroext i8 @equals(ptr noundef %83, i32 noundef %86, ptr noundef %87, i32 noundef %88)
  %90 = zext i8 %89 to i32
  %91 = icmp ne i32 %90, 0
  br i1 %91, label %92, label %93

92:                                               ; preds = %80
  br label %106

93:                                               ; preds = %80, %74
  %94 = load ptr, ptr %12, align 8
  %95 = icmp ne ptr %94, null
  br i1 %95, label %96, label %101

96:                                               ; preds = %93
  %97 = load ptr, ptr %6, align 8
  call void @ZIP_Unlock(ptr noundef %97)
  %98 = load ptr, ptr %6, align 8
  %99 = load ptr, ptr %12, align 8
  call void @ZIP_FreeEntry(ptr noundef %98, ptr noundef %99)
  %100 = load ptr, ptr %6, align 8
  call void @ZIP_Lock(ptr noundef %100)
  br label %101

101:                                              ; preds = %96, %93
  store ptr null, ptr %12, align 8
  br label %102

102:                                              ; preds = %101, %62
  %103 = load ptr, ptr %13, align 8
  %104 = getelementptr inbounds %struct.jzcell, ptr %103, i32 0, i32 1
  %105 = load i32, ptr %104, align 4
  store i32 %105, ptr %11, align 4
  br label %59, !llvm.loop !12

106:                                              ; preds = %92, %59
  %107 = load ptr, ptr %12, align 8
  %108 = icmp ne ptr %107, null
  br i1 %108, label %109, label %110

109:                                              ; preds = %106
  br label %150

110:                                              ; preds = %106
  %111 = load i8, ptr %9, align 1
  %112 = icmp ne i8 %111, 0
  br i1 %112, label %114, label %113

113:                                              ; preds = %110
  br label %150

114:                                              ; preds = %110
  %115 = load i32, ptr %8, align 4
  %116 = icmp sgt i32 %115, 0
  br i1 %116, label %117, label %127

117:                                              ; preds = %114
  %118 = load ptr, ptr %7, align 8
  %119 = load i32, ptr %8, align 4
  %120 = sub nsw i32 %119, 1
  %121 = sext i32 %120 to i64
  %122 = getelementptr inbounds i8, ptr %118, i64 %121
  %123 = load i8, ptr %122, align 1
  %124 = sext i8 %123 to i32
  %125 = icmp eq i32 %124, 47
  br i1 %125, label %126, label %127

126:                                              ; preds = %117
  br label %150

127:                                              ; preds = %117, %114
  %128 = load ptr, ptr %7, align 8
  %129 = load i32, ptr %8, align 4
  %130 = add nsw i32 %129, 1
  store i32 %130, ptr %8, align 4
  %131 = sext i32 %129 to i64
  %132 = getelementptr inbounds i8, ptr %128, i64 %131
  store i8 47, ptr %132, align 1
  %133 = load ptr, ptr %7, align 8
  %134 = load i32, ptr %8, align 4
  %135 = sext i32 %134 to i64
  %136 = getelementptr inbounds i8, ptr %133, i64 %135
  store i8 0, ptr %136, align 1
  %137 = load i32, ptr %10, align 4
  %138 = call i32 @hash_append(i32 noundef %137, i8 noundef signext 47)
  store i32 %138, ptr %10, align 4
  %139 = load ptr, ptr %6, align 8
  %140 = getelementptr inbounds %struct.jzfile, ptr %139, i32 0, i32 16
  %141 = load ptr, ptr %140, align 8
  %142 = load i32, ptr %10, align 4
  %143 = load ptr, ptr %6, align 8
  %144 = getelementptr inbounds %struct.jzfile, ptr %143, i32 0, i32 17
  %145 = load i32, ptr %144, align 8
  %146 = urem i32 %142, %145
  %147 = zext i32 %146 to i64
  %148 = getelementptr inbounds i32, ptr %141, i64 %147
  %149 = load i32, ptr %148, align 4
  store i32 %149, ptr %11, align 4
  store i8 0, ptr %9, align 1
  br label %35

150:                                              ; preds = %126, %113, %109
  br label %151

151:                                              ; preds = %150, %22
  %152 = load ptr, ptr %6, align 8
  call void @ZIP_Unlock(ptr noundef %152)
  %153 = load ptr, ptr %12, align 8
  store ptr %153, ptr %5, align 8
  br label %154

154:                                              ; preds = %151, %53
  %155 = load ptr, ptr %5, align 8
  ret ptr %155
}