; Function Attrs: nounwind uwtable
define hidden ptr @ZIP_GetEntry2(ptr nocapture noundef %0, ptr nocapture noundef %1, i32 noundef %2, i8 noundef zeroext %3) local_unnamed_addr #0 {
  %5 = icmp sgt i32 %2, 0
  br i1 %5, label %.lr.ph.i, label %hashN.exit

.lr.ph.i:                                         ; preds = %4, %.lr.ph.i
  %.07.i = phi i32 [ %11, %.lr.ph.i ], [ 0, %4 ]
  %.036.i = phi i32 [ %6, %.lr.ph.i ], [ %2, %4 ]
  %.045.i = phi ptr [ %8, %.lr.ph.i ], [ %1, %4 ]
  %6 = add nsw i32 %.036.i, -1
  %7 = mul i32 %.07.i, 31
  %8 = getelementptr inbounds i8, ptr %.045.i, i64 1
  %9 = load i8, ptr %.045.i, align 1
  %10 = sext i8 %9 to i32
  %11 = add i32 %7, %10
  %12 = icmp ugt i32 %.036.i, 1
  br i1 %12, label %.lr.ph.i, label %hashN.exit, !llvm.loop !15

hashN.exit:                                       ; preds = %.lr.ph.i, %4
  %.0.lcssa.i = phi i32 [ 0, %4 ], [ %11, %.lr.ph.i ]
  %13 = getelementptr inbounds i8, ptr %0, i64 80
  %14 = load ptr, ptr %13, align 8
  %15 = tail call i32 @JVM_RawMonitorEnter(ptr noundef %14) #21
  %16 = getelementptr inbounds i8, ptr %0, i64 120
  %17 = load i32, ptr %16, align 8
  %18 = icmp eq i32 %17, 0
  br i1 %18, label %.loopexit78, label %19

19:                                               ; preds = %hashN.exit
  %20 = getelementptr inbounds i8, ptr %0, i64 128
  %21 = load ptr, ptr %20, align 8
  %22 = getelementptr inbounds i8, ptr %0, i64 136
  %23 = load i32, ptr %22, align 8
  %24 = urem i32 %.0.lcssa.i, %23
  %25 = zext i32 %24 to i64
  %26 = getelementptr inbounds i32, ptr %21, i64 %25
  %27 = icmp ne i8 %3, 0
  %28 = getelementptr inbounds i8, ptr %0, i64 152
  %invariant.gep = getelementptr i8, ptr %1, i64 -1
  %29 = getelementptr inbounds i8, ptr %0, i64 112
  %30 = sext i32 %2 to i64
  br label %31

31:                                               ; preds = %85, %19
  %indvars.iv = phi i64 [ %indvars.iv.next, %85 ], [ %30, %19 ]
  %.054 = phi i1 [ false, %85 ], [ %27, %19 ]
  %.053 = phi i32 [ %89, %85 ], [ %.0.lcssa.i, %19 ]
  %.051.in = phi ptr [ %94, %85 ], [ %26, %19 ]
  %.051 = load i32, ptr %.051.in, align 4
  %32 = load ptr, ptr %28, align 8
  %.not = icmp eq ptr %32, null
  br i1 %.not, label %equals.exit.thread, label %33

33:                                               ; preds = %31
  %34 = getelementptr inbounds i8, ptr %32, i64 68
  %35 = load i32, ptr %34, align 4
  %36 = trunc nsw i64 %indvars.iv to i32
  %.not.i = icmp eq i32 %35, %36
  br i1 %.not.i, label %.preheader.i.preheader, label %equals.exit.thread

.preheader.i.preheader:                           ; preds = %33
  %37 = load ptr, ptr %32, align 8
  br label %.preheader.i

.preheader.i:                                     ; preds = %.preheader.i.preheader, %39
  %.07.i63 = phi ptr [ %41, %39 ], [ %37, %.preheader.i.preheader ]
  %.06.i = phi i32 [ %40, %39 ], [ %35, %.preheader.i.preheader ]
  %.05.i = phi ptr [ %43, %39 ], [ %1, %.preheader.i.preheader ]
  %38 = icmp sgt i32 %.06.i, 0
  br i1 %38, label %39, label %equals.exit

39:                                               ; preds = %.preheader.i
  %40 = add nsw i32 %.06.i, -1
  %41 = getelementptr inbounds i8, ptr %.07.i63, i64 1
  %42 = load i8, ptr %.07.i63, align 1
  %43 = getelementptr inbounds i8, ptr %.05.i, i64 1
  %44 = load i8, ptr %.05.i, align 1
  %.not9.i = icmp eq i8 %42, %44
  br i1 %.not9.i, label %.preheader.i, label %equals.exit.thread, !llvm.loop !18

equals.exit:                                      ; preds = %.preheader.i
  store ptr null, ptr %28, align 8
  br label %.loopexit78

equals.exit.thread:                               ; preds = %39, %33, %31
  %.not6084 = icmp eq i32 %.051, -1
  br i1 %.not6084, label %equals.exit71, label %.lr.ph.preheader

.lr.ph.preheader:                                 ; preds = %equals.exit.thread
  %45 = trunc nsw i64 %indvars.iv to i32
  br label %.lr.ph

.lr.ph:                                           ; preds = %.lr.ph.preheader, %.critedge
  %.15285 = phi i32 [ %78, %.critedge ], [ %.051, %.lr.ph.preheader ]
  %46 = load ptr, ptr %29, align 8
  %47 = sext i32 %.15285 to i64
  %48 = getelementptr inbounds %struct.jzcell, ptr %46, i64 %47
  %49 = load i32, ptr %48, align 8
  %50 = icmp eq i32 %49, %.053
  br i1 %50, label %51, label %.critedge

51:                                               ; preds = %.lr.ph
  %52 = tail call fastcc ptr @newEntry(ptr noundef nonnull %0, ptr noundef nonnull %48, i32 noundef 0)
  %.not61 = icmp eq ptr %52, null
  br i1 %.not61, label %.critedge, label %53

53:                                               ; preds = %51
  %54 = getelementptr inbounds i8, ptr %52, i64 68
  %55 = load i32, ptr %54, align 4
  %.not.i64 = icmp eq i32 %55, %45
  br i1 %.not.i64, label %.preheader.i66.preheader, label %.loopexit

.preheader.i66.preheader:                         ; preds = %53
  %56 = load ptr, ptr %52, align 8
  br label %.preheader.i66

.preheader.i66:                                   ; preds = %.preheader.i66.preheader, %58
  %.07.i67 = phi ptr [ %60, %58 ], [ %56, %.preheader.i66.preheader ]
  %.06.i68 = phi i32 [ %59, %58 ], [ %45, %.preheader.i66.preheader ]
  %.05.i69 = phi ptr [ %62, %58 ], [ %1, %.preheader.i66.preheader ]
  %57 = icmp sgt i32 %.06.i68, 0
  br i1 %57, label %58, label %equals.exit71

58:                                               ; preds = %.preheader.i66
  %59 = add nsw i32 %.06.i68, -1
  %60 = getelementptr inbounds i8, ptr %.07.i67, i64 1
  %61 = load i8, ptr %.07.i67, align 1
  %62 = getelementptr inbounds i8, ptr %.05.i69, i64 1
  %63 = load i8, ptr %.05.i69, align 1
  %.not9.i70 = icmp eq i8 %61, %63
  br i1 %.not9.i70, label %.preheader.i66, label %.loopexit, !llvm.loop !18

.loopexit:                                        ; preds = %58, %53
  %64 = load ptr, ptr %13, align 8
  tail call void @JVM_RawMonitorExit(ptr noundef %64) #21
  %65 = load ptr, ptr %13, align 8
  %66 = tail call i32 @JVM_RawMonitorEnter(ptr noundef %65) #21
  %67 = load ptr, ptr %28, align 8
  store ptr %52, ptr %28, align 8
  %68 = load ptr, ptr %13, align 8
  tail call void @JVM_RawMonitorExit(ptr noundef %68) #21
  %.not.i72 = icmp eq ptr %67, null
  br i1 %.not.i72, label %ZIP_FreeEntry.exit, label %69

69:                                               ; preds = %.loopexit
  %70 = load ptr, ptr %67, align 8
  tail call void @free(ptr noundef %70) #21
  %71 = getelementptr inbounds i8, ptr %67, i64 48
  %72 = load ptr, ptr %71, align 8
  tail call void @free(ptr noundef %72) #21
  %73 = getelementptr inbounds i8, ptr %67, i64 40
  %74 = load ptr, ptr %73, align 8
  tail call void @free(ptr noundef %74) #21
  tail call void @free(ptr noundef nonnull %67) #21
  br label %ZIP_FreeEntry.exit

ZIP_FreeEntry.exit:                               ; preds = %.loopexit, %69
  %75 = load ptr, ptr %13, align 8
  %76 = tail call i32 @JVM_RawMonitorEnter(ptr noundef %75) #21
  br label %.critedge

.critedge:                                        ; preds = %ZIP_FreeEntry.exit, %51, %.lr.ph
  %77 = getelementptr inbounds i8, ptr %48, i64 4
  %78 = load i32, ptr %77, align 4
  %.not60 = icmp eq i32 %78, -1
  br i1 %.not60, label %equals.exit71, label %.lr.ph, !llvm.loop !19

equals.exit71:                                    ; preds = %.critedge, %.preheader.i66, %equals.exit.thread
  %.2 = phi ptr [ null, %equals.exit.thread ], [ %52, %.preheader.i66 ], [ null, %.critedge ]
  %79 = icmp eq ptr %.2, null
  %or.cond = and i1 %.054, %79
  br i1 %or.cond, label %80, label %.loopexit78

80:                                               ; preds = %equals.exit71
  %81 = icmp sgt i64 %indvars.iv, 0
  br i1 %81, label %82, label %85

82:                                               ; preds = %80
  %gep = getelementptr i8, ptr %invariant.gep, i64 %indvars.iv
  %83 = load i8, ptr %gep, align 1
  %84 = icmp eq i8 %83, 47
  br i1 %84, label %.loopexit78, label %85

85:                                               ; preds = %82, %80
  %indvars.iv.next = add nsw i64 %indvars.iv, 1
  %86 = getelementptr inbounds i8, ptr %1, i64 %indvars.iv
  store i8 47, ptr %86, align 1
  %87 = getelementptr inbounds i8, ptr %1, i64 %indvars.iv.next
  store i8 0, ptr %87, align 1
  %88 = mul nsw i32 %.053, 31
  %89 = add nsw i32 %88, 47
  %90 = load ptr, ptr %20, align 8
  %91 = load i32, ptr %22, align 8
  %92 = urem i32 %89, %91
  %93 = zext i32 %92 to i64
  %94 = getelementptr inbounds i32, ptr %90, i64 %93
  br label %31

.loopexit78:                                      ; preds = %82, %equals.exit71, %hashN.exit, %equals.exit
  %.0 = phi ptr [ %32, %equals.exit ], [ null, %hashN.exit ], [ %.2, %equals.exit71 ], [ null, %82 ]
  %95 = load ptr, ptr %13, align 8
  tail call void @JVM_RawMonitorExit(ptr noundef %95) #21
  ret ptr %.0
}